; ModuleID = '5/102.c'
source_filename = "5/102.c"
target datalayout = "e-m:e-p270:32:32-p271:32:32-p272:64:64-i64:64-f80:128-n8:16:32:64-S128"
target triple = "x86_64-pc-linux-gnu"

@.str = private unnamed_addr constant [4 x i8] c"%lf\00", align 1
@.str.1 = private unnamed_addr constant [3 x i8] c"%s\00", align 1
@.str.2 = private unnamed_addr constant [6 x i8] c"error\00", align 1
@.str.3 = private unnamed_addr constant [4 x i8] c"yes\00", align 1
@.str.4 = private unnamed_addr constant [3 x i8] c"no\00", align 1

; Function Attrs: noinline nounwind uwtable
define dso_local i32 @main() #0 {
  %1 = alloca i32, align 4
  %2 = alloca [505 x i8], align 16
  %3 = alloca [505 x i8], align 16
  %4 = alloca double, align 8
  %5 = alloca double, align 8
  %6 = alloca double, align 8
  %7 = alloca double, align 8
  %8 = alloca double, align 8
  %9 = alloca i32, align 4
  store i32 0, i32* %1, align 4
  store double 0.000000e+00, double* %5, align 8
  store double 0.000000e+00, double* %8, align 8
  %10 = call i32 (i8*, ...) @__isoc99_scanf(i8* getelementptr inbounds ([4 x i8], [4 x i8]* @.str, i64 0, i64 0), double* %4)
  %11 = getelementptr inbounds [505 x i8], [505 x i8]* %2, i64 0, i64 0
  %12 = call i32 (i8*, ...) @__isoc99_scanf(i8* getelementptr inbounds ([3 x i8], [3 x i8]* @.str.1, i64 0, i64 0), i8* %11)
  %13 = getelementptr inbounds [505 x i8], [505 x i8]* %3, i64 0, i64 0
  %14 = call i32 (i8*, ...) @__isoc99_scanf(i8* getelementptr inbounds ([3 x i8], [3 x i8]* @.str.1, i64 0, i64 0), i8* %13)
  %15 = getelementptr inbounds [505 x i8], [505 x i8]* %2, i64 0, i64 0
  %16 = call i64 @strlen(i8* %15) #3
  %17 = uitofp i64 %16 to double
  store double %17, double* %6, align 8
  %18 = getelementptr inbounds [505 x i8], [505 x i8]* %3, i64 0, i64 0
  %19 = call i64 @strlen(i8* %18) #3
  %20 = uitofp i64 %19 to double
  store double %20, double* %7, align 8
  store i32 0, i32* %9, align 4
  br label %21

21:                                               ; preds = %56, %0
  %22 = load i32, i32* %9, align 4
  %23 = sitofp i32 %22 to double
  %24 = load double, double* %6, align 8
  %25 = fcmp olt double %23, %24
  br i1 %25, label %26, label %59

26:                                               ; preds = %21
  %27 = load i32, i32* %9, align 4
  %28 = sext i32 %27 to i64
  %29 = getelementptr inbounds [505 x i8], [505 x i8]* %2, i64 0, i64 %28
  %30 = load i8, i8* %29, align 1
  %31 = sext i8 %30 to i32
  %32 = icmp eq i32 %31, 65
  br i1 %32, label %54, label %33

33:                                               ; preds = %26
  %34 = load i32, i32* %9, align 4
  %35 = sext i32 %34 to i64
  %36 = getelementptr inbounds [505 x i8], [505 x i8]* %2, i64 0, i64 %35
  %37 = load i8, i8* %36, align 1
  %38 = sext i8 %37 to i32
  %39 = icmp eq i32 %38, 84
  br i1 %39, label %54, label %40

40:                                               ; preds = %33
  %41 = load i32, i32* %9, align 4
  %42 = sext i32 %41 to i64
  %43 = getelementptr inbounds [505 x i8], [505 x i8]* %2, i64 0, i64 %42
  %44 = load i8, i8* %43, align 1
  %45 = sext i8 %44 to i32
  %46 = icmp eq i32 %45, 67
  br i1 %46, label %54, label %47

47:                                               ; preds = %40
  %48 = load i32, i32* %9, align 4
  %49 = sext i32 %48 to i64
  %50 = getelementptr inbounds [505 x i8], [505 x i8]* %2, i64 0, i64 %49
  %51 = load i8, i8* %50, align 1
  %52 = sext i8 %51 to i32
  %53 = icmp eq i32 %52, 71
  br i1 %53, label %54, label %55

54:                                               ; preds = %47, %40, %33, %26
  br label %56

55:                                               ; preds = %47
  store double 1.000000e+00, double* %8, align 8
  br label %59

56:                                               ; preds = %54
  %57 = load i32, i32* %9, align 4
  %58 = add nsw i32 %57, 1
  store i32 %58, i32* %9, align 4
  br label %21

59:                                               ; preds = %55, %21
  store i32 0, i32* %9, align 4
  br label %60

60:                                               ; preds = %95, %59
  %61 = load i32, i32* %9, align 4
  %62 = sitofp i32 %61 to double
  %63 = load double, double* %7, align 8
  %64 = fcmp olt double %62, %63
  br i1 %64, label %65, label %98

65:                                               ; preds = %60
  %66 = load i32, i32* %9, align 4
  %67 = sext i32 %66 to i64
  %68 = getelementptr inbounds [505 x i8], [505 x i8]* %3, i64 0, i64 %67
  %69 = load i8, i8* %68, align 1
  %70 = sext i8 %69 to i32
  %71 = icmp eq i32 %70, 65
  br i1 %71, label %93, label %72

72:                                               ; preds = %65
  %73 = load i32, i32* %9, align 4
  %74 = sext i32 %73 to i64
  %75 = getelementptr inbounds [505 x i8], [505 x i8]* %3, i64 0, i64 %74
  %76 = load i8, i8* %75, align 1
  %77 = sext i8 %76 to i32
  %78 = icmp eq i32 %77, 84
  br i1 %78, label %93, label %79

79:                                               ; preds = %72
  %80 = load i32, i32* %9, align 4
  %81 = sext i32 %80 to i64
  %82 = getelementptr inbounds [505 x i8], [505 x i8]* %3, i64 0, i64 %81
  %83 = load i8, i8* %82, align 1
  %84 = sext i8 %83 to i32
  %85 = icmp eq i32 %84, 67
  br i1 %85, label %93, label %86

86:                                               ; preds = %79
  %87 = load i32, i32* %9, align 4
  %88 = sext i32 %87 to i64
  %89 = getelementptr inbounds [505 x i8], [505 x i8]* %3, i64 0, i64 %88
  %90 = load i8, i8* %89, align 1
  %91 = sext i8 %90 to i32
  %92 = icmp eq i32 %91, 71
  br i1 %92, label %93, label %94

93:                                               ; preds = %86, %79, %72, %65
  br label %95

94:                                               ; preds = %86
  store double 1.000000e+00, double* %8, align 8
  br label %98

95:                                               ; preds = %93
  %96 = load i32, i32* %9, align 4
  %97 = add nsw i32 %96, 1
  store i32 %97, i32* %9, align 4
  br label %60

98:                                               ; preds = %94, %60
  %99 = load double, double* %6, align 8
  %100 = load double, double* %7, align 8
  %101 = fcmp une double %99, %100
  br i1 %101, label %105, label %102

102:                                              ; preds = %98
  %103 = load double, double* %8, align 8
  %104 = fcmp oeq double %103, 1.000000e+00
  br i1 %104, label %105, label %107

105:                                              ; preds = %102, %98
  %106 = call i32 (i8*, ...) @printf(i8* getelementptr inbounds ([6 x i8], [6 x i8]* @.str.2, i64 0, i64 0))
  br label %144

107:                                              ; preds = %102
  store i32 0, i32* %9, align 4
  br label %108

108:                                              ; preds = %129, %107
  %109 = load i32, i32* %9, align 4
  %110 = sitofp i32 %109 to double
  %111 = load double, double* %6, align 8
  %112 = fcmp ole double %110, %111
  br i1 %112, label %113, label %132

113:                                              ; preds = %108
  %114 = load i32, i32* %9, align 4
  %115 = sext i32 %114 to i64
  %116 = getelementptr inbounds [505 x i8], [505 x i8]* %2, i64 0, i64 %115
  %117 = load i8, i8* %116, align 1
  %118 = sext i8 %117 to i32
  %119 = load i32, i32* %9, align 4
  %120 = sext i32 %119 to i64
  %121 = getelementptr inbounds [505 x i8], [505 x i8]* %3, i64 0, i64 %120
  %122 = load i8, i8* %121, align 1
  %123 = sext i8 %122 to i32
  %124 = icmp eq i32 %118, %123
  br i1 %124, label %125, label %128

125:                                              ; preds = %113
  %126 = load double, double* %5, align 8
  %127 = fadd double %126, 1.000000e+00
  store double %127, double* %5, align 8
  br label %128

128:                                              ; preds = %125, %113
  br label %129

129:                                              ; preds = %128
  %130 = load i32, i32* %9, align 4
  %131 = add nsw i32 %130, 1
  store i32 %131, i32* %9, align 4
  br label %108

132:                                              ; preds = %108
  %133 = load double, double* %5, align 8
  %134 = load double, double* %6, align 8
  %135 = fdiv double %133, %134
  store double %135, double* %5, align 8
  %136 = load double, double* %5, align 8
  %137 = load double, double* %4, align 8
  %138 = fcmp ogt double %136, %137
  br i1 %138, label %139, label %141

139:                                              ; preds = %132
  %140 = call i32 (i8*, ...) @printf(i8* getelementptr inbounds ([4 x i8], [4 x i8]* @.str.3, i64 0, i64 0))
  br label %143

141:                                              ; preds = %132
  %142 = call i32 (i8*, ...) @printf(i8* getelementptr inbounds ([3 x i8], [3 x i8]* @.str.4, i64 0, i64 0))
  br label %143

143:                                              ; preds = %141, %139
  br label %144

144:                                              ; preds = %143, %105
  ret i32 0
}

declare dso_local i32 @__isoc99_scanf(i8*, ...) #1

; Function Attrs: nounwind readonly
declare dso_local i64 @strlen(i8*) #2

declare dso_local i32 @printf(i8*, ...) #1


!llvm.module.flags = !{!0}
!llvm.ident = !{!1}

!0 = !{i32 1, !"wchar_size", i32 4}
!1 = !{!"clang version 10.0.0-4ubuntu1 "}
