; ModuleID = 'source-C-CXX/4/102.c'
source_filename = "source-C-CXX/4/102.c"
target datalayout = "e-m:e-p270:32:32-p271:32:32-p272:64:64-i64:64-f80:128-n8:16:32:64-S128"
target triple = "x86_64-pc-linux-gnu"

@.str = private unnamed_addr constant [4 x i8] c"%lf\00", align 1
@.str.1 = private unnamed_addr constant [3 x i8] c"%s\00", align 1
@.str.2 = private unnamed_addr constant [6 x i8] c"error\00", align 1
@.str.3 = private unnamed_addr constant [4 x i8] c"yes\00", align 1
@.str.4 = private unnamed_addr constant [3 x i8] c"no\00", align 1

; Function Attrs: nofree nounwind sspstrong uwtable
define dso_local i32 @main() local_unnamed_addr #0 {
  %1 = alloca [505 x i8], align 16
  %2 = alloca [505 x i8], align 16
  %3 = alloca double, align 8
  %4 = getelementptr inbounds [505 x i8], [505 x i8]* %1, i64 0, i64 0
  call void @llvm.lifetime.start.p0i8(i64 505, i8* nonnull %4) #4
  %5 = getelementptr inbounds [505 x i8], [505 x i8]* %2, i64 0, i64 0
  call void @llvm.lifetime.start.p0i8(i64 505, i8* nonnull %5) #4
  %6 = bitcast double* %3 to i8*
  call void @llvm.lifetime.start.p0i8(i64 8, i8* nonnull %6) #4
  %7 = call i32 (i8*, ...) @__isoc99_scanf(i8* getelementptr inbounds ([4 x i8], [4 x i8]* @.str, i64 0, i64 0), double* nonnull %3)
  %8 = call i32 (i8*, ...) @__isoc99_scanf(i8* getelementptr inbounds ([3 x i8], [3 x i8]* @.str.1, i64 0, i64 0), i8* nonnull %4)
  %9 = call i32 (i8*, ...) @__isoc99_scanf(i8* getelementptr inbounds ([3 x i8], [3 x i8]* @.str.1, i64 0, i64 0), i8* nonnull %5)
  %10 = call i64 @strlen(i8* noundef nonnull %4) #5
  %11 = uitofp i64 %10 to double
  %12 = call i64 @strlen(i8* noundef nonnull %5) #5
  %13 = uitofp i64 %12 to double
  %14 = icmp eq i64 %10, 0
  br i1 %14, label %24, label %15

15:                                               ; preds = %0, %19
  %16 = phi i64 [ %20, %19 ], [ 0, %0 ]
  %17 = getelementptr inbounds [505 x i8], [505 x i8]* %1, i64 0, i64 %16
  %18 = load i8, i8* %17, align 1, !tbaa !5
  switch i8 %18, label %24 [
    i8 65, label %19
    i8 84, label %19
    i8 67, label %19
    i8 71, label %19
  ]

19:                                               ; preds = %15, %15, %15, %15
  %20 = add nuw i64 %16, 1
  %21 = trunc i64 %20 to i32
  %22 = sitofp i32 %21 to double
  %23 = fcmp olt double %22, %11
  br i1 %23, label %15, label %24, !llvm.loop !8

24:                                               ; preds = %19, %15, %0
  %25 = phi double [ 0.000000e+00, %0 ], [ 1.000000e+00, %15 ], [ 0.000000e+00, %19 ]
  %26 = icmp eq i64 %12, 0
  br i1 %26, label %36, label %27

27:                                               ; preds = %24, %31
  %28 = phi i64 [ %32, %31 ], [ 0, %24 ]
  %29 = getelementptr inbounds [505 x i8], [505 x i8]* %2, i64 0, i64 %28
  %30 = load i8, i8* %29, align 1, !tbaa !5
  switch i8 %30, label %59 [
    i8 65, label %31
    i8 84, label %31
    i8 67, label %31
    i8 71, label %31
  ]

31:                                               ; preds = %27, %27, %27, %27
  %32 = add nuw i64 %28, 1
  %33 = trunc i64 %32 to i32
  %34 = sitofp i32 %33 to double
  %35 = fcmp olt double %34, %13
  br i1 %35, label %27, label %36, !llvm.loop !10

36:                                               ; preds = %31, %24
  %37 = fcmp une double %11, %13
  %38 = fcmp oeq double %25, 1.000000e+00
  %39 = or i1 %37, %38
  br i1 %39, label %59, label %40

40:                                               ; preds = %36, %40
  %41 = phi i64 [ %50, %40 ], [ 0, %36 ]
  %42 = phi double [ %49, %40 ], [ 0.000000e+00, %36 ]
  %43 = getelementptr inbounds [505 x i8], [505 x i8]* %1, i64 0, i64 %41
  %44 = load i8, i8* %43, align 1, !tbaa !5
  %45 = getelementptr inbounds [505 x i8], [505 x i8]* %2, i64 0, i64 %41
  %46 = load i8, i8* %45, align 1, !tbaa !5
  %47 = icmp eq i8 %44, %46
  %48 = fadd double %42, 1.000000e+00
  %49 = select i1 %47, double %48, double %42
  %50 = add nuw i64 %41, 1
  %51 = trunc i64 %50 to i32
  %52 = sitofp i32 %51 to double
  %53 = fcmp ugt double %52, %11
  br i1 %53, label %54, label %40, !llvm.loop !11

54:                                               ; preds = %40
  %55 = fdiv double %49, %11
  %56 = load double, double* %3, align 8, !tbaa !12
  %57 = fcmp ogt double %55, %56
  %58 = select i1 %57, i8* getelementptr inbounds ([4 x i8], [4 x i8]* @.str.3, i64 0, i64 0), i8* getelementptr inbounds ([3 x i8], [3 x i8]* @.str.4, i64 0, i64 0)
  br label %59

59:                                               ; preds = %27, %54, %36
  %60 = phi i8* [ getelementptr inbounds ([6 x i8], [6 x i8]* @.str.2, i64 0, i64 0), %36 ], [ %58, %54 ], [ getelementptr inbounds ([6 x i8], [6 x i8]* @.str.2, i64 0, i64 0), %27 ]
  %61 = call i32 (i8*, ...) @printf(i8* nonnull dereferenceable(1) %60)
  call void @llvm.lifetime.end.p0i8(i64 8, i8* nonnull %6) #4
  call void @llvm.lifetime.end.p0i8(i64 505, i8* nonnull %5) #4
  call void @llvm.lifetime.end.p0i8(i64 505, i8* nonnull %4) #4
  ret i32 0
}

; Function Attrs: argmemonly mustprogress nofree nosync nounwind willreturn
declare void @llvm.lifetime.start.p0i8(i64 immarg, i8* nocapture) #1

; Function Attrs: nofree nounwind
declare noundef i32 @__isoc99_scanf(i8* nocapture noundef readonly, ...) local_unnamed_addr #2

; Function Attrs: argmemonly mustprogress nofree nounwind readonly willreturn
declare i64 @strlen(i8* nocapture) local_unnamed_addr #3

; Function Attrs: nofree nounwind
declare noundef i32 @printf(i8* nocapture noundef readonly, ...) local_unnamed_addr #2

; Function Attrs: argmemonly mustprogress nofree nosync nounwind willreturn
declare void @llvm.lifetime.end.p0i8(i64 immarg, i8* nocapture) #1


!llvm.module.flags = !{!0, !1, !2, !3}
!llvm.ident = !{!4}

!0 = !{i32 1, !"wchar_size", i32 4}
!1 = !{i32 7, !"PIC Level", i32 2}
!2 = !{i32 7, !"PIE Level", i32 2}
!3 = !{i32 7, !"uwtable", i32 1}
!4 = !{!"clang version 13.0.0"}
!5 = !{!6, !6, i64 0}
!6 = !{!"omnipotent char", !7, i64 0}
!7 = !{!"Simple C/C++ TBAA"}
!8 = distinct !{!8, !9}
!9 = !{!"llvm.loop.mustprogress"}
!10 = distinct !{!10, !9}
!11 = distinct !{!11, !9}
!12 = !{!13, !13, i64 0}
!13 = !{!"double", !6, i64 0}
